target datalayout = "e-m:e-p270:32:32-p271:32:32-p272:64:64-i64:64-i128:128-f80:128-n8:16:32:64-S128"
target triple = "x86_64-pc-linux-gnu"

%struct.DdManager = type { %struct.DdNode, ptr, ptr, ptr, ptr, ptr, ptr, ptr, i32, i32, double, double, double, i32, i32, i32, i32, i32, i32, ptr, ptr, %struct.DdSubtable, i32, i32, i32, i32, i32, i32, i32, double, i32, i32, i32, ptr, i64, double, i32, ptr, ptr, ptr, ptr, ptr, ptr, ptr, i32, ptr, ptr, ptr, ptr, ptr, ptr, i32, i32, i32, double, i32, i32, i32, i32, double, double, i32, i32, i32, i32, i32, i32, i32, i32, i32, ptr, ptr, i32, i32, i32, i32, i32, i32, ptr, ptr, ptr, ptr, ptr, ptr, ptr, ptr, i32, i64, i64, i64, i32, i64, i64, double, double, double, double, double, double, i32, ptr, ptr, i64 }
%struct.DdNode = type { i32, i32, ptr, %union.anon, i64 }
%union.anon = type { %struct.DdChildren }
%struct.DdChildren = type { ptr, ptr }
%struct.DdSubtable = type { ptr, i32, i32, i32, i32, i32, i32, i32, i32, i32, i32, i32 }
%struct.traventry = type { i32, ptr }

@s_CutLevel = internal global i32 0, align 4

; Function Attrs: nounwind uwtable
define i32 @Extra_bddNodePathsUnderCutArray(ptr noundef %0, ptr noundef %1, ptr noundef %2, i32 noundef %3, ptr noundef %4, ptr noundef %5, i32 noundef %6) #0 {
  %8 = alloca i32, align 4
  %9 = alloca ptr, align 8
  %10 = alloca ptr, align 8
  %11 = alloca ptr, align 8
  %12 = alloca i32, align 4
  %13 = alloca ptr, align 8
  %14 = alloca ptr, align 8
  %15 = alloca i32, align 4
  %16 = alloca ptr, align 8
  %17 = alloca ptr, align 8
  %18 = alloca i32, align 4
  %19 = alloca i32, align 4
  %20 = alloca i32, align 4
  %21 = alloca ptr, align 8
  %22 = alloca ptr, align 8
  %23 = alloca ptr, align 8
  %24 = alloca ptr, align 8
  %25 = alloca ptr, align 8
  %26 = alloca ptr, align 8
  store ptr %0, ptr %9, align 8, !tbaa !3
  store ptr %1, ptr %10, align 8, !tbaa !8
  store ptr %2, ptr %11, align 8, !tbaa !8
  store i32 %3, ptr %12, align 4, !tbaa !10
  store ptr %4, ptr %13, align 8, !tbaa !8
  store ptr %5, ptr %14, align 8, !tbaa !8
  store i32 %6, ptr %15, align 4, !tbaa !10
  call void @llvm.lifetime.start.p0(i64 8, ptr %16) #6
  call void @llvm.lifetime.start.p0(i64 8, ptr %17) #6
  call void @llvm.lifetime.start.p0(i64 4, ptr %18) #6
  call void @llvm.lifetime.start.p0(i64 4, ptr %19) #6
  %27 = load i32, ptr %15, align 4, !tbaa !10
  store i32 %27, ptr @s_CutLevel, align 4, !tbaa !10
  %28 = load i32, ptr %12, align 4, !tbaa !10
  %29 = icmp eq i32 %28, 1
  br i1 %29, label %30, label %83

30:                                               ; preds = %7
  %31 = load ptr, ptr %10, align 8, !tbaa !8
  %32 = getelementptr inbounds ptr, ptr %31, i64 0
  %33 = load ptr, ptr %32, align 8, !tbaa !28
  %34 = ptrtoint ptr %33 to i64
  %35 = and i64 %34, -2
  %36 = inttoptr i64 %35 to ptr
  %37 = getelementptr inbounds nuw %struct.DdNode, ptr %36, i32 0, i32 0
  %38 = load i32, ptr %37, align 8, !tbaa !33
  %39 = icmp eq i32 %38, 2147483647
  br i1 %39, label %40, label %83

40:                                               ; preds = %30
  %41 = load ptr, ptr %10, align 8, !tbaa !8
  %42 = getelementptr inbounds ptr, ptr %41, i64 0
  %43 = load ptr, ptr %42, align 8, !tbaa !28
  %44 = load ptr, ptr %9, align 8, !tbaa !3
  %45 = getelementptr inbounds nuw %struct.DdManager, ptr %44, i32 0, i32 1
  %46 = load ptr, ptr %45, align 8, !tbaa !12
  %47 = icmp eq ptr %43, %46
  br i1 %47, label %48, label %65

48:                                               ; preds = %40
  %49 = load ptr, ptr %9, align 8, !tbaa !3
  %50 = getelementptr inbounds nuw %struct.DdManager, ptr %49, i32 0, i32 1
  %51 = load ptr, ptr %50, align 8, !tbaa !12
  %52 = load ptr, ptr %13, align 8, !tbaa !8
  %53 = getelementptr inbounds ptr, ptr %52, i64 0
  store ptr %51, ptr %53, align 8, !tbaa !28
  %54 = load ptr, ptr %9, align 8, !tbaa !3
  %55 = getelementptr inbounds nuw %struct.DdManager, ptr %54, i32 0, i32 1
  %56 = load ptr, ptr %55, align 8, !tbaa !12
  call void @Cudd_Ref(ptr noundef %56)
  %57 = load ptr, ptr %11, align 8, !tbaa !8
  %58 = getelementptr inbounds ptr, ptr %57, i64 0
  %59 = load ptr, ptr %58, align 8, !tbaa !28
  %60 = load ptr, ptr %14, align 8, !tbaa !8
  %61 = getelementptr inbounds ptr, ptr %60, i64 0
  store ptr %59, ptr %61, align 8, !tbaa !28
  %62 = load ptr, ptr %11, align 8, !tbaa !8
  %63 = getelementptr inbounds ptr, ptr %62, i64 0
  %64 = load ptr, ptr %63, align 8, !tbaa !28
  call void @Cudd_Ref(ptr noundef %64)
  br label %82

65:                                               ; preds = %40
  %66 = load ptr, ptr %9, align 8, !tbaa !3
  %67 = getelementptr inbounds nuw %struct.DdManager, ptr %66, i32 0, i32 2
  %68 = load ptr, ptr %67, align 8, !tbaa !57
  %69 = load ptr, ptr %13, align 8, !tbaa !8
  %70 = getelementptr inbounds ptr, ptr %69, i64 0
  store ptr %68, ptr %70, align 8, !tbaa !28
  %71 = load ptr, ptr %9, align 8, !tbaa !3
  %72 = getelementptr inbounds nuw %struct.DdManager, ptr %71, i32 0, i32 2
  %73 = load ptr, ptr %72, align 8, !tbaa !57
  call void @Cudd_Ref(ptr noundef %73)
  %74 = load ptr, ptr %11, align 8, !tbaa !8
  %75 = getelementptr inbounds ptr, ptr %74, i64 0
  %76 = load ptr, ptr %75, align 8, !tbaa !28
  %77 = load ptr, ptr %14, align 8, !tbaa !8
  %78 = getelementptr inbounds ptr, ptr %77, i64 0
  store ptr %76, ptr %78, align 8, !tbaa !28
  %79 = load ptr, ptr %11, align 8, !tbaa !8
  %80 = getelementptr inbounds ptr, ptr %79, i64 0
  %81 = load ptr, ptr %80, align 8, !tbaa !28
  call void @Cudd_Ref(ptr noundef %81)
  br label %82

82:                                               ; preds = %65, %48
  store i32 1, ptr %8, align 4
  store i32 1, ptr %20, align 4
  br label %174

83:                                               ; preds = %30, %7
  %84 = call ptr @st__init_table(ptr noundef @st__ptrcmp, ptr noundef @st__ptrhash)
  store ptr %84, ptr %17, align 8, !tbaa !41
  %85 = call ptr @st__init_table(ptr noundef @st__ptrcmp, ptr noundef @st__ptrhash)
  store ptr %85, ptr %16, align 8, !tbaa !41
  store i32 0, ptr %18, align 4, !tbaa !10
  br label %86

86:                                               ; preds = %98, %83
  %87 = load i32, ptr %18, align 4, !tbaa !10
  %88 = load i32, ptr %12, align 4, !tbaa !10
  %89 = icmp slt i32 %87, %88
  br i1 %89, label %90, label %101

90:                                               ; preds = %86
  %91 = load ptr, ptr %9, align 8, !tbaa !3
  %92 = load ptr, ptr %10, align 8, !tbaa !8
  %93 = load i32, ptr %18, align 4, !tbaa !10
  %94 = sext i32 %93 to i64
  %95 = getelementptr inbounds ptr, ptr %92, i64 %94
  %96 = load ptr, ptr %95, align 8, !tbaa !28
  %97 = load ptr, ptr %16, align 8, !tbaa !41
  call void @CountNodeVisits_rec(ptr noundef %91, ptr noundef %96, ptr noundef %97)
  br label %98

98:                                               ; preds = %90
  %99 = load i32, ptr %18, align 4, !tbaa !10
  %100 = add nsw i32 %99, 1
  store i32 %100, ptr %18, align 4, !tbaa !10
  br label %86, !llvm.loop !58

101:                                              ; preds = %86
  store i32 0, ptr %18, align 4, !tbaa !10
  br label %102

102:                                              ; preds = %120, %101
  %103 = load i32, ptr %18, align 4, !tbaa !10
  %104 = load i32, ptr %12, align 4, !tbaa !10
  %105 = icmp slt i32 %103, %104
  br i1 %105, label %106, label %123

106:                                              ; preds = %102
  %107 = load ptr, ptr %9, align 8, !tbaa !3
  %108 = load ptr, ptr %10, align 8, !tbaa !8
  %109 = load i32, ptr %18, align 4, !tbaa !10
  %110 = sext i32 %109 to i64
  %111 = getelementptr inbounds ptr, ptr %108, i64 %110
  %112 = load ptr, ptr %111, align 8, !tbaa !28
  %113 = load ptr, ptr %11, align 8, !tbaa !8
  %114 = load i32, ptr %18, align 4, !tbaa !10
  %115 = sext i32 %114 to i64
  %116 = getelementptr inbounds ptr, ptr %113, i64 %115
  %117 = load ptr, ptr %116, align 8, !tbaa !28
  %118 = load ptr, ptr %16, align 8, !tbaa !41
  %119 = load ptr, ptr %17, align 8, !tbaa !41
  call void @CollectNodesAndComputePaths_rec(ptr noundef %107, ptr noundef %112, ptr noundef %117, ptr noundef %118, ptr noundef %119)
  br label %120

120:                                              ; preds = %106
  %121 = load i32, ptr %18, align 4, !tbaa !10
  %122 = add nsw i32 %121, 1
  store i32 %122, ptr %18, align 4, !tbaa !10
  br label %102, !llvm.loop !59

123:                                              ; preds = %102
  call void @llvm.lifetime.start.p0(i64 8, ptr %21) #6
  call void @llvm.lifetime.start.p0(i64 8, ptr %22) #6
  call void @llvm.lifetime.start.p0(i64 8, ptr %23) #6
  %124 = load ptr, ptr %16, align 8, !tbaa !41
  %125 = call ptr @st__init_gen(ptr noundef %124)
  store ptr %125, ptr %21, align 8, !tbaa !43
  br label %126

126:                                              ; preds = %144, %123
  %127 = load ptr, ptr %21, align 8, !tbaa !43
  %128 = call i32 @st__gen(ptr noundef %127, ptr noundef %22, ptr noundef %23)
  %129 = icmp ne i32 %128, 0
  br i1 %129, label %132, label %130

130:                                              ; preds = %126
  %131 = load ptr, ptr %21, align 8, !tbaa !43
  call void @st__free_gen(ptr noundef %131)
  br label %132

132:                                              ; preds = %130, %126
  %133 = phi i1 [ true, %126 ], [ false, %130 ]
  br i1 %133, label %134, label %145

134:                                              ; preds = %132
  %135 = load ptr, ptr %9, align 8, !tbaa !3
  %136 = load ptr, ptr %23, align 8, !tbaa !47
  %137 = getelementptr inbounds nuw %struct.traventry, ptr %136, i32 0, i32 1
  %138 = load ptr, ptr %137, align 8, !tbaa !48
  call void @Cudd_RecursiveDeref(ptr noundef %135, ptr noundef %138)
  %139 = load ptr, ptr %23, align 8, !tbaa !47
  %140 = icmp ne ptr %139, null
  br i1 %140, label %141, label %143

141:                                              ; preds = %134
  %142 = load ptr, ptr %23, align 8, !tbaa !47
  call void @free(ptr noundef %142) #6
  store ptr null, ptr %23, align 8, !tbaa !47
  br label %144

143:                                              ; preds = %134
  br label %144

144:                                              ; preds = %143, %141
  br label %126, !llvm.loop !60

145:                                              ; preds = %132
  %146 = load ptr, ptr %16, align 8, !tbaa !41
  call void @st__free_table(ptr noundef %146)
  call void @llvm.lifetime.end.p0(i64 8, ptr %23) #6
  call void @llvm.lifetime.end.p0(i64 8, ptr %22) #6
  call void @llvm.lifetime.end.p0(i64 8, ptr %21) #6
  call void @llvm.lifetime.start.p0(i64 8, ptr %24) #6
  call void @llvm.lifetime.start.p0(i64 8, ptr %25) #6
  call void @llvm.lifetime.start.p0(i64 8, ptr %26) #6
  store i32 0, ptr %19, align 4, !tbaa !10
  %147 = load ptr, ptr %17, align 8, !tbaa !41
  %148 = call ptr @st__init_gen(ptr noundef %147)
  store ptr %148, ptr %24, align 8, !tbaa !43
  br label %149

149:                                              ; preds = %157, %145
  %150 = load ptr, ptr %24, align 8, !tbaa !43
  %151 = call i32 @st__gen(ptr noundef %150, ptr noundef %25, ptr noundef %26)
  %152 = icmp ne i32 %151, 0
  br i1 %152, label %155, label %153

153:                                              ; preds = %149
  %154 = load ptr, ptr %24, align 8, !tbaa !43
  call void @st__free_gen(ptr noundef %154)
  br label %155

155:                                              ; preds = %153, %149
  %156 = phi i1 [ true, %149 ], [ false, %153 ]
  br i1 %156, label %157, label %171

157:                                              ; preds = %155
  %158 = load ptr, ptr %25, align 8, !tbaa !28
  %159 = load ptr, ptr %13, align 8, !tbaa !8
  %160 = load i32, ptr %19, align 4, !tbaa !10
  %161 = sext i32 %160 to i64
  %162 = getelementptr inbounds ptr, ptr %159, i64 %161
  store ptr %158, ptr %162, align 8, !tbaa !28
  %163 = load ptr, ptr %25, align 8, !tbaa !28
  call void @Cudd_Ref(ptr noundef %163)
  %164 = load ptr, ptr %26, align 8, !tbaa !28
  %165 = load ptr, ptr %14, align 8, !tbaa !8
  %166 = load i32, ptr %19, align 4, !tbaa !10
  %167 = sext i32 %166 to i64
  %168 = getelementptr inbounds ptr, ptr %165, i64 %167
  store ptr %164, ptr %168, align 8, !tbaa !28
  %169 = load i32, ptr %19, align 4, !tbaa !10
  %170 = add nsw i32 %169, 1
  store i32 %170, ptr %19, align 4, !tbaa !10
  br label %149, !llvm.loop !61

171:                                              ; preds = %155
  %172 = load ptr, ptr %17, align 8, !tbaa !41
  call void @st__free_table(ptr noundef %172)
  call void @llvm.lifetime.end.p0(i64 8, ptr %26) #6
  call void @llvm.lifetime.end.p0(i64 8, ptr %25) #6
  call void @llvm.lifetime.end.p0(i64 8, ptr %24) #6
  %173 = load i32, ptr %19, align 4, !tbaa !10
  store i32 %173, ptr %8, align 4
  store i32 1, ptr %20, align 4
  br label %174

174:                                              ; preds = %171, %82
  call void @llvm.lifetime.end.p0(i64 4, ptr %19) #6
  call void @llvm.lifetime.end.p0(i64 4, ptr %18) #6
  call void @llvm.lifetime.end.p0(i64 8, ptr %17) #6
  call void @llvm.lifetime.end.p0(i64 8, ptr %16) #6
  %175 = load i32, ptr %8, align 4
  ret i32 %175
}