; Function Attrs: nounwind uwtable
define i32 @Extra_bddNodePathsUnderCutArray(ptr noundef %0, ptr noundef readonly captures(none) %1, ptr noundef readonly captures(none) %2, i32 noundef %3, ptr noundef writeonly captures(none) %4, ptr noundef writeonly captures(none) %5, i32 noundef %6) local_unnamed_addr #0 {
  %8 = alloca ptr, align 8
  %9 = alloca ptr, align 8
  %10 = alloca ptr, align 8
  %11 = alloca ptr, align 8
  store i32 %6, ptr @s_CutLevel, align 4, !tbaa !29
  %12 = icmp eq i32 %3, 1
  br i1 %12, label %13, label %31

13:                                               ; preds = %7
  %14 = load ptr, ptr %1, align 8, !tbaa !24
  %15 = ptrtoint ptr %14 to i64
  %16 = and i64 %15, -2
  %17 = inttoptr i64 %16 to ptr
  %18 = load i32, ptr %17, align 8, !tbaa !28
  %19 = icmp eq i32 %18, 2147483647
  br i1 %19, label %20, label %31

20:                                               ; preds = %13
  %21 = getelementptr inbounds nuw i8, ptr %0, i64 40
  %22 = load ptr, ptr %21, align 8, !tbaa !3
  %23 = icmp eq ptr %14, %22
  br i1 %23, label %24, label %27

24:                                               ; preds = %20
  store ptr %22, ptr %4, align 8, !tbaa !24
  %25 = load ptr, ptr %21, align 8, !tbaa !3
  tail call void @Cudd_Ref(ptr noundef %25) #11
  %26 = load ptr, ptr %2, align 8, !tbaa !24
  store ptr %26, ptr %5, align 8, !tbaa !24
  tail call void @Cudd_Ref(ptr noundef %26) #11
  br label %58

27:                                               ; preds = %20
  %28 = getelementptr inbounds nuw i8, ptr %0, i64 48
  %29 = load ptr, ptr %28, align 8, !tbaa !48
  store ptr %29, ptr %4, align 8, !tbaa !24
  tail call void @Cudd_Ref(ptr noundef %29) #11
  %30 = load ptr, ptr %2, align 8, !tbaa !24
  store ptr %30, ptr %5, align 8, !tbaa !24
  tail call void @Cudd_Ref(ptr noundef %30) #11
  br label %58

31:                                               ; preds = %13, %7
  %32 = tail call ptr @st__init_table(ptr noundef nonnull @st__ptrcmp, ptr noundef nonnull @st__ptrhash) #11
  %33 = tail call ptr @st__init_table(ptr noundef nonnull @st__ptrcmp, ptr noundef nonnull @st__ptrhash) #11
  %34 = icmp sgt i32 %3, 0
  br i1 %34, label %.lr.ph.preheader, label %._crit_edge

.lr.ph.preheader:                                 ; preds = %31
  %wide.trip.count = zext nneg i32 %3 to i64
  br label %.lr.ph

.lr.ph60.preheader:                               ; preds = %.lr.ph
  %wide.trip.count70 = zext nneg i32 %3 to i64
  br label %.lr.ph60

.lr.ph:                                           ; preds = %.lr.ph.preheader, %.lr.ph
  %indvars.iv = phi i64 [ 0, %.lr.ph.preheader ], [ %indvars.iv.next, %.lr.ph ]
  %35 = getelementptr inbounds nuw ptr, ptr %1, i64 %indvars.iv
  %36 = load ptr, ptr %35, align 8, !tbaa !24
  tail call fastcc void @CountNodeVisits_rec(ptr noundef %0, ptr noundef %36, ptr noundef %33)
  %indvars.iv.next = add nuw nsw i64 %indvars.iv, 1
  %exitcond.not = icmp eq i64 %indvars.iv.next, %wide.trip.count
  br i1 %exitcond.not, label %.lr.ph60.preheader, label %.lr.ph, !llvm.loop !49

.lr.ph60:                                         ; preds = %.lr.ph60.preheader, %.lr.ph60
  %indvars.iv67 = phi i64 [ 0, %.lr.ph60.preheader ], [ %indvars.iv.next68, %.lr.ph60 ]
  %37 = getelementptr inbounds nuw ptr, ptr %1, i64 %indvars.iv67
  %38 = load ptr, ptr %37, align 8, !tbaa !24
  %39 = getelementptr inbounds nuw ptr, ptr %2, i64 %indvars.iv67
  %40 = load ptr, ptr %39, align 8, !tbaa !24
  tail call fastcc void @CollectNodesAndComputePaths_rec(ptr noundef %0, ptr noundef %38, ptr noundef %40, ptr noundef %33, ptr noundef %32)
  %indvars.iv.next68 = add nuw nsw i64 %indvars.iv67, 1
  %exitcond71.not = icmp eq i64 %indvars.iv.next68, %wide.trip.count70
  br i1 %exitcond71.not, label %._crit_edge, label %.lr.ph60, !llvm.loop !50

._crit_edge:                                      ; preds = %.lr.ph60, %31
  call void @llvm.lifetime.start.p0(i64 8, ptr nonnull %8) #11
  call void @llvm.lifetime.start.p0(i64 8, ptr nonnull %9) #11
  %41 = tail call ptr @st__init_gen(ptr noundef %33) #11
  %42 = call i32 @st__gen(ptr noundef %41, ptr noundef nonnull %8, ptr noundef nonnull %9) #11
  %.not61 = icmp eq i32 %42, 0
  br i1 %.not61, label %._crit_edge62, label %.critedge

._crit_edge62:                                    ; preds = %50, %._crit_edge
  call void @st__free_gen(ptr noundef %41) #11
  call void @st__free_table(ptr noundef %33) #11
  call void @llvm.lifetime.end.p0(i64 8, ptr nonnull %9) #11
  call void @llvm.lifetime.end.p0(i64 8, ptr nonnull %8) #11
  call void @llvm.lifetime.start.p0(i64 8, ptr nonnull %10) #11
  call void @llvm.lifetime.start.p0(i64 8, ptr nonnull %11) #11
  %43 = call ptr @st__init_gen(ptr noundef %32) #11
  %44 = call i32 @st__gen(ptr noundef %43, ptr noundef nonnull %10, ptr noundef nonnull %11) #11
  %.not5663 = icmp eq i32 %44, 0
  br i1 %.not5663, label %._crit_edge65, label %.critedge2

.critedge:                                        ; preds = %._crit_edge, %50
  %45 = load ptr, ptr %9, align 8, !tbaa !38
  %46 = getelementptr inbounds nuw i8, ptr %45, i64 8
  %47 = load ptr, ptr %46, align 8, !tbaa !39
  call void @Cudd_RecursiveDeref(ptr noundef %0, ptr noundef %47) #11
  %48 = load ptr, ptr %9, align 8, !tbaa !38
  %.not57 = icmp eq ptr %48, null
  br i1 %.not57, label %50, label %49

49:                                               ; preds = %.critedge
  call void @free(ptr noundef nonnull %48) #11
  store ptr null, ptr %9, align 8, !tbaa !38
  br label %50

50:                                               ; preds = %.critedge, %49
  %51 = call i32 @st__gen(ptr noundef %41, ptr noundef nonnull %8, ptr noundef nonnull %9) #11
  %.not = icmp eq i32 %51, 0
  br i1 %.not, label %._crit_edge62, label %.critedge, !llvm.loop !51

._crit_edge65.loopexit:                           ; preds = %.critedge2
  %52 = trunc nuw i64 %indvars.iv.next73 to i32
  br label %._crit_edge65

._crit_edge65:                                    ; preds = %._crit_edge65.loopexit, %._crit_edge62
  %.052.lcssa = phi i32 [ 0, %._crit_edge62 ], [ %52, %._crit_edge65.loopexit ]
  call void @st__free_gen(ptr noundef %43) #11
  call void @st__free_table(ptr noundef %32) #11
  call void @llvm.lifetime.end.p0(i64 8, ptr nonnull %11) #11
  call void @llvm.lifetime.end.p0(i64 8, ptr nonnull %10) #11
  br label %58

.critedge2:                                       ; preds = %._crit_edge62, %.critedge2
  %indvars.iv72 = phi i64 [ %indvars.iv.next73, %.critedge2 ], [ 0, %._crit_edge62 ]
  %53 = load ptr, ptr %10, align 8, !tbaa !24
  %54 = getelementptr inbounds nuw ptr, ptr %4, i64 %indvars.iv72
  store ptr %53, ptr %54, align 8, !tbaa !24
  call void @Cudd_Ref(ptr noundef %53) #11
  %55 = load ptr, ptr %11, align 8, !tbaa !24
  %56 = getelementptr inbounds nuw ptr, ptr %5, i64 %indvars.iv72
  store ptr %55, ptr %56, align 8, !tbaa !24
  %indvars.iv.next73 = add nuw nsw i64 %indvars.iv72, 1
  %57 = call i32 @st__gen(ptr noundef %43, ptr noundef nonnull %10, ptr noundef nonnull %11) #11
  %.not56 = icmp eq i32 %57, 0
  br i1 %.not56, label %._crit_edge65.loopexit, label %.critedge2, !llvm.loop !52

58:                                               ; preds = %24, %27, %._crit_edge65
  %.0 = phi i32 [ %.052.lcssa, %._crit_edge65 ], [ 1, %27 ], [ 1, %24 ]
  ret i32 %.0
}